; Function Attrs: mustprogress null_pointer_is_valid sspstrong uwtable
define void @_ZN13IOGraphDialog9zoomYAxisEb(ptr noundef align 8 captures(none) dereferenceable_or_null(384) initializes((347, 348)) %0, i1 noundef zeroext %1) local_unnamed_addr #2 align 2 {
  %3 = getelementptr inbounds nuw i8, ptr %0, i64 144
  %4 = load ptr, ptr %3, align 8
  %5 = getelementptr inbounds nuw i8, ptr %4, i64 208
  %6 = load ptr, ptr %5, align 8
  %7 = tail call noundef ptr @_ZNK11QCustomPlot8axisRectEi(ptr noundef align 8 dereferenceable_or_null(513) %6, i32 noundef 0)
  %8 = tail call noundef double @_ZN11QCPAxisRect15rangeZoomFactorEN2Qt11OrientationE(ptr noundef align 8 dereferenceable_or_null(432) %7, i32 noundef 2)
  %9 = getelementptr inbounds nuw i8, ptr %0, i64 347
  store i8 0, ptr %9, align 1
  %reciprocal = fdiv double 1.000000e+00, %8
  %.0 = select i1 %1, double %8, double %reciprocal
  %10 = getelementptr inbounds nuw i8, ptr %6, i64 48
  %11 = load ptr, ptr %10, align 8
  %12 = getelementptr inbounds nuw i8, ptr %11, i64 304
  %.sroa.0.0.copyload.i = load double, ptr %12, align 8
  %.sroa.2.0..sroa_idx.i = getelementptr inbounds nuw i8, ptr %11, i64 312
  %.sroa.2.0.copyload.i = load double, ptr %.sroa.2.0..sroa_idx.i, align 8
  %13 = fadd double %.sroa.0.0.copyload.i, %.sroa.2.0.copyload.i
  %14 = fmul double %13, 5.000000e-01
  tail call void @_ZN7QCPAxis10scaleRangeEdd(ptr noundef align 8 dereferenceable_or_null(472) %11, double noundef %.0, double noundef %14)
  tail call void @_ZN11QCustomPlot6replotENS_15RefreshPriorityE(ptr noundef align 8 dereferenceable_or_null(513) %6, i32 noundef 2)
  ret void
}